target datalayout = "e-m:e-p270:32:32-p271:32:32-p272:64:64-i64:64-i128:128-f80:128-n8:16:32:64-S128"
target triple = "x86_64-pc-linux-gnu"

%struct.qtest_fault_encrypted_extensions = type { ptr, i64 }

; Function Attrs: nounwind uwtable
define internal i32 @drop_extensions_cb(ptr noundef %0, ptr noundef %1, i64 noundef %2, ptr noundef %3) #0 {
  %5 = alloca i32, align 4
  %6 = alloca ptr, align 8
  %7 = alloca ptr, align 8
  %8 = alloca i64, align 8
  %9 = alloca ptr, align 8
  %10 = alloca ptr, align 8
  %11 = alloca i32, align 4
  store ptr %0, ptr %6, align 8, !tbaa !19
  store ptr %1, ptr %7, align 8, !tbaa !24
  store i64 %2, ptr %8, align 8, !tbaa !17
  store ptr %3, ptr %9, align 8, !tbaa !23
  call void @llvm.lifetime.start.p0(i64 8, ptr %10) #6
  %12 = load ptr, ptr %9, align 8, !tbaa !23
  store ptr %12, ptr %10, align 8, !tbaa !26
  %13 = load ptr, ptr %6, align 8, !tbaa !19
  %14 = load ptr, ptr %10, align 8, !tbaa !26
  %15 = load i32, ptr %14, align 4, !tbaa !9
  %16 = load ptr, ptr %7, align 8, !tbaa !24
  %17 = getelementptr inbounds nuw %struct.qtest_fault_encrypted_extensions, ptr %16, i32 0, i32 0
  %18 = load ptr, ptr %17, align 8, !tbaa !28
  %19 = load ptr, ptr %7, align 8, !tbaa !24
  %20 = getelementptr inbounds nuw %struct.qtest_fault_encrypted_extensions, ptr %19, i32 0, i32 1
  %21 = call i32 @qtest_fault_delete_extension(ptr noundef %13, i32 noundef %15, ptr noundef %18, ptr noundef %20, ptr noundef null)
  %22 = icmp ne i32 %21, 0
  br i1 %22, label %24, label %23

23:                                               ; preds = %4
  store i32 0, ptr %5, align 4
  store i32 1, ptr %11, align 4
  br label %25

24:                                               ; preds = %4
  store i32 1, ptr %5, align 4
  store i32 1, ptr %11, align 4
  br label %25

25:                                               ; preds = %24, %23
  call void @llvm.lifetime.end.p0(i64 8, ptr %10) #6
  %26 = load i32, ptr %5, align 4
  ret i32 %26
}