; Function Attrs: nounwind uwtable
define internal range(i32 0, 2) i32 @drop_extensions_cb(ptr noundef %0, ptr noundef %1, i64 %2, ptr noundef readonly captures(none) %3) #1 {
  %5 = load i32, ptr %3, align 4, !tbaa !17
  %6 = load ptr, ptr %1, align 8, !tbaa !19
  %7 = getelementptr inbounds nuw i8, ptr %1, i64 8
  %8 = tail call i32 @qtest_fault_delete_extension(ptr noundef %0, i32 noundef %5, ptr noundef %6, ptr noundef nonnull %7, ptr noundef null) #4
  %.not = icmp ne i32 %8, 0
  %. = zext i1 %.not to i32
  ret i32 %.
}